target datalayout = "e-m:e-p270:32:32-p271:32:32-p272:64:64-i64:64-i128:128-f80:128-n8:16:32:64-S128"
target triple = "x86_64-pc-linux-gnu"

%struct.asn1_pctx_st = type { i64, i64, i64, i64, i64 }

@.str = private unnamed_addr constant [126 x i8] c"generated/home/dtcxzyw/WorkSpace/Projects/compilers/llvm-opt-benchmark/bench/libquic/libquic/boringssl/crypto/asn1/tasn_prn.c\00", align 1

; Function Attrs: nounwind uwtable
define hidden ptr @ASN1_PCTX_new() #0 {
  %1 = alloca ptr, align 8
  %2 = alloca ptr, align 8
  %3 = alloca i32, align 4
  call void @llvm.lifetime.start.p0(i64 8, ptr %2) #5
  %4 = call noalias ptr @malloc(i64 noundef 40) #6
  store ptr %4, ptr %2, align 8, !tbaa !6
  %5 = load ptr, ptr %2, align 8, !tbaa !6
  %6 = icmp eq ptr %5, null
  br i1 %6, label %7, label %8

7:                                                ; preds = %0
  call void @ERR_put_error(i32 noundef 12, i32 noundef 0, i32 noundef 65, ptr noundef @.str, i32 noundef 87)
  store ptr null, ptr %1, align 8
  store i32 1, ptr %3, align 4
  br label %20

8:                                                ; preds = %0
  %9 = load ptr, ptr %2, align 8, !tbaa !6
  %10 = getelementptr inbounds nuw %struct.asn1_pctx_st, ptr %9, i32 0, i32 0
  store i64 0, ptr %10, align 8, !tbaa !11
  %11 = load ptr, ptr %2, align 8, !tbaa !6
  %12 = getelementptr inbounds nuw %struct.asn1_pctx_st, ptr %11, i32 0, i32 1
  store i64 0, ptr %12, align 8, !tbaa !14
  %13 = load ptr, ptr %2, align 8, !tbaa !6
  %14 = getelementptr inbounds nuw %struct.asn1_pctx_st, ptr %13, i32 0, i32 2
  store i64 0, ptr %14, align 8, !tbaa !15
  %15 = load ptr, ptr %2, align 8, !tbaa !6
  %16 = getelementptr inbounds nuw %struct.asn1_pctx_st, ptr %15, i32 0, i32 3
  store i64 0, ptr %16, align 8, !tbaa !16
  %17 = load ptr, ptr %2, align 8, !tbaa !6
  %18 = getelementptr inbounds nuw %struct.asn1_pctx_st, ptr %17, i32 0, i32 4
  store i64 0, ptr %18, align 8, !tbaa !17
  %19 = load ptr, ptr %2, align 8, !tbaa !6
  store ptr %19, ptr %1, align 8
  store i32 1, ptr %3, align 4
  br label %20

20:                                               ; preds = %8, %7
  call void @llvm.lifetime.end.p0(i64 8, ptr %2) #5
  %21 = load ptr, ptr %1, align 8
  ret ptr %21
}