; Function Attrs: nounwind uwtable
define hidden noalias noundef ptr @ASN1_PCTX_new() local_unnamed_addr #0 {
  %calloc = tail call dereferenceable_or_null(40) ptr @calloc(i64 1, i64 40)
  %1 = icmp eq ptr %calloc, null
  br i1 %1, label %2, label %3

2:                                                ; preds = %0
  tail call void @ERR_put_error(i32 noundef 12, i32 noundef 0, i32 noundef 65, ptr noundef nonnull @.str, i32 noundef 87) #8
  br label %3

3:                                                ; preds = %0, %2
  ret ptr %calloc
}